target datalayout = "e-m:e-p270:32:32-p271:32:32-p272:64:64-i64:64-i128:128-f80:128-n8:16:32:64-S128"
target triple = "x86_64-pc-linux-gnu"

@.str.19 = private unnamed_addr constant [37 x i8] c"5b585e8f-3be5-11e3-bf0b-18037319526c\00", align 1

; Function Attrs: nounwind uwtable
define ptr @clamav_stats_get_hostid(ptr noundef %0) #0 {
  %2 = alloca ptr, align 8
  %3 = alloca ptr, align 8
  %4 = alloca ptr, align 8
  store ptr %0, ptr %3, align 8
  %5 = call ptr @internal_get_host_id()
  store ptr %5, ptr %4, align 8
  %6 = load ptr, ptr %4, align 8
  %7 = icmp ne ptr %6, null
  br i1 %7, label %10, label %8

8:                                                ; preds = %1
  %9 = call noalias ptr @strdup(ptr noundef @.str.19) #7
  store ptr %9, ptr %2, align 8
  br label %12

10:                                               ; preds = %1
  %11 = load ptr, ptr %4, align 8
  store ptr %11, ptr %2, align 8
  br label %12

12:                                               ; preds = %10, %8
  %13 = load ptr, ptr %2, align 8
  ret ptr %13
}