; Function Attrs: nounwind uwtable
define ptr @clamav_stats_get_hostid(ptr noundef readnone captures(none) %0) local_unnamed_addr #0 {
  %2 = tail call ptr @internal_get_host_id() #13
  %.not = icmp eq ptr %2, null
  br i1 %.not, label %3, label %5

3:                                                ; preds = %1
  %4 = tail call noalias dereferenceable_or_null(37) ptr @strdup(ptr noundef nonnull @.str.19) #13
  br label %5

5:                                                ; preds = %1, %3
  %.0 = phi ptr [ %4, %3 ], [ %2, %1 ]
  ret ptr %.0
}